target datalayout = "e-m:e-p270:32:32-p271:32:32-p272:64:64-i64:64-i128:128-f80:128-n8:16:32:64-S128"
target triple = "x86_64-pc-linux-gnu"

%struct.pmix_list_t = type { %struct.pmix_object_t, %struct.pmix_list_item_t, i64 }
%struct.pmix_object_t = type { %union.pthread_mutex_t, ptr, i32, %struct.pmix_tma }
%union.pthread_mutex_t = type { %struct.__pthread_mutex_s }
%struct.__pthread_mutex_s = type { i32, i32, i32, i32, i32, i16, i16, %struct.__pthread_internal_list }
%struct.__pthread_internal_list = type { ptr, ptr }
%struct.pmix_tma = type { ptr, ptr, ptr, ptr, ptr, ptr, ptr, ptr }
%struct.pmix_list_item_t = type { %struct.pmix_object_t, ptr, ptr, i32 }
%struct.pmix_output_desc_t = type { i8, i8, i32, i8, i32, ptr, ptr, i32, ptr, i32, i8, i8, i8, i8, ptr, i32, i32 }
%struct.pmix_proc = type { [256 x i8], i32 }
%struct.prte_mca_iof_hnp_component_t = type { %struct.pmix_mca_base_component_2_1_0_t, %struct.pmix_list_t, %struct.event }
%struct.pmix_mca_base_component_2_1_0_t = type { i32, i32, i32, [16 x i8], i32, i32, i32, [32 x i8], i32, i32, i32, [64 x i8], i32, i32, i32, ptr, ptr, ptr, ptr, [32 x i8] }
%struct.event = type { %struct.event_callback, %union.anon.0, i32, ptr, %union.anon.2, i16, i16, %struct.timeval }
%struct.event_callback = type { %struct.anon, i16, i8, i8, %union.anon, ptr }
%struct.anon = type { ptr, ptr }
%union.anon = type { ptr }
%union.anon.0 = type { %struct.anon.1 }
%struct.anon.1 = type { ptr, ptr }
%union.anon.2 = type { %struct.anon.3 }
%struct.anon.3 = type { %struct.anon.4, %struct.timeval }
%struct.anon.4 = type { ptr, ptr }
%struct.timeval = type { i64, i64 }
%struct.pmix_mca_base_framework_t = type { ptr, ptr, ptr, ptr, ptr, ptr, i32, i32, ptr, ptr, i32, i32, %struct.pmix_list_t, %struct.pmix_list_t }
%struct.prte_process_info_t = type { %struct.pmix_proc, %struct.pmix_proc, ptr, %struct.pmix_proc, i32, i32, i32, ptr, ptr, i32, i8, ptr, i16, ptr, ptr, i8, ptr, i8 }
%struct.prte_iof_proc_t = type { %struct.pmix_list_item_t, %struct.pmix_proc, ptr, ptr, ptr }
%struct.prte_iof_sink_t = type { %struct.pmix_list_item_t, %struct.pmix_proc, %struct.pmix_proc, i16, ptr, i8, i8, i8 }

@pmix_output_info = external global [0 x %struct.pmix_output_desc_t], align 8
@.str.1 = private unnamed_addr constant [10 x i8] c"iof_hnp.c\00", align 1
@prte_mca_iof_hnp_component = external global %struct.prte_mca_iof_hnp_component_t, align 8
@prte_iof_base_framework = external global %struct.pmix_mca_base_framework_t, align 8
@prte_process_info = external global %struct.prte_process_info_t, align 8
@.str.5 = private unnamed_addr constant [37 x i8] c"PRTE ERROR: %s in file %s at line %d\00", align 1
@.str.7 = private unnamed_addr constant [50 x i8] c"%s iof:hnp pushing stdin to process %s (size %zu)\00", align 1
@.str.8 = private unnamed_addr constant [27 x i8] c"buffer backed up - holding\00", align 1

; Function Attrs: nounwind uwtable
define internal i32 @push_stdin(ptr noundef %0, ptr noundef %1, i64 noundef %2) #0 {
  %4 = alloca i32, align 4
  %5 = alloca ptr, align 8
  %6 = alloca ptr, align 8
  %7 = alloca i64, align 8
  %8 = alloca %struct.pmix_proc, align 4
  %9 = alloca ptr, align 8
  %10 = alloca i32, align 4
  %11 = alloca i32, align 4
  store ptr %0, ptr %5, align 8, !tbaa !25
  store ptr %1, ptr %6, align 8, !tbaa !81
  store i64 %2, ptr %7, align 8, !tbaa !82
  call void @llvm.lifetime.start.p0(i64 260, ptr %8) #10
  call void @llvm.lifetime.start.p0(i64 8, ptr %9) #10
  call void @llvm.lifetime.start.p0(i64 4, ptr %10) #10
  %12 = load ptr, ptr %5, align 8, !tbaa !25
  %13 = getelementptr inbounds nuw %struct.pmix_proc, ptr %12, i32 0, i32 1
  %14 = load i32, ptr %13, align 4, !tbaa !29
  %15 = icmp eq i32 -4, %14
  br i1 %15, label %16, label %17

16:                                               ; preds = %3
  store i32 0, ptr %4, align 4
  store i32 1, ptr %11, align 4
  br label %158

17:                                               ; preds = %3
  %18 = load i32, ptr getelementptr inbounds nuw (%struct.pmix_mca_base_framework_t, ptr @prte_iof_base_framework, i32 0, i32 11), align 4, !tbaa !31
  %19 = icmp sge i32 %18, 0
  br i1 %19, label %20, label %36

20:                                               ; preds = %17
  %21 = load i32, ptr getelementptr inbounds nuw (%struct.pmix_mca_base_framework_t, ptr @prte_iof_base_framework, i32 0, i32 11), align 4, !tbaa !31
  %22 = icmp slt i32 %21, 64
  br i1 %22, label %23, label %36

23:                                               ; preds = %20
  %24 = load i32, ptr getelementptr inbounds nuw (%struct.pmix_mca_base_framework_t, ptr @prte_iof_base_framework, i32 0, i32 11), align 4, !tbaa !31
  %25 = sext i32 %24 to i64
  %26 = getelementptr inbounds [0 x %struct.pmix_output_desc_t], ptr @pmix_output_info, i64 0, i64 %25
  %27 = getelementptr inbounds nuw %struct.pmix_output_desc_t, ptr %26, i32 0, i32 2
  %28 = load i32, ptr %27, align 4, !tbaa !17
  %29 = icmp sge i32 %28, 1
  br i1 %29, label %30, label %36

30:                                               ; preds = %23
  %31 = load i32, ptr getelementptr inbounds nuw (%struct.pmix_mca_base_framework_t, ptr @prte_iof_base_framework, i32 0, i32 11), align 4, !tbaa !31
  %32 = call ptr @prte_util_print_name_args(ptr noundef @prte_process_info)
  %33 = load ptr, ptr %5, align 8, !tbaa !25
  %34 = call ptr @prte_util_print_name_args(ptr noundef %33)
  %35 = load i64, ptr %7, align 8, !tbaa !82
  call void (i32, ptr, ...) @pmix_output(i32 noundef %31, ptr noundef @.str.7, ptr noundef %32, ptr noundef %34, i64 noundef %35)
  br label %36

36:                                               ; preds = %30, %23, %20, %17
  %37 = load ptr, ptr %5, align 8, !tbaa !25
  %38 = getelementptr inbounds nuw %struct.pmix_proc, ptr %37, i32 0, i32 1
  %39 = load i32, ptr %38, align 4, !tbaa !29
  %40 = icmp eq i32 -2, %39
  br i1 %40, label %41, label %61

41:                                               ; preds = %36
  call void @PMIx_Load_procid(ptr noundef %8, ptr noundef @prte_process_info, i32 noundef -2)
  %42 = load ptr, ptr %5, align 8, !tbaa !25
  %43 = load ptr, ptr %6, align 8, !tbaa !81
  %44 = load i64, ptr %7, align 8, !tbaa !82
  %45 = trunc i64 %44 to i32
  %46 = call i32 @prte_iof_hnp_send_data_to_endpoint(ptr noundef %8, ptr noundef %42, i16 noundef zeroext 1, ptr noundef %43, i32 noundef %45)
  store i32 %46, ptr %10, align 4, !tbaa !20
  %47 = load i32, ptr %10, align 4, !tbaa !20
  %48 = icmp ne i32 0, %47
  br i1 %48, label %49, label %60

49:                                               ; preds = %41
  br label %50

50:                                               ; preds = %49
  %51 = load i32, ptr %10, align 4, !tbaa !20
  %52 = icmp ne i32 -43, %51
  br i1 %52, label %53, label %56

53:                                               ; preds = %50
  %54 = load i32, ptr %10, align 4, !tbaa !20
  %55 = call ptr @prte_strerror(i32 noundef %54)
  call void (i32, ptr, ...) @pmix_output(i32 noundef 0, ptr noundef @.str.5, ptr noundef %55, ptr noundef @.str.1, i32 noundef 208)
  br label %56

56:                                               ; preds = %53, %50
  br label %57

57:                                               ; preds = %56
  br label %58

58:                                               ; preds = %57
  %59 = load i32, ptr %10, align 4, !tbaa !20
  store i32 %59, ptr %4, align 4
  store i32 1, ptr %11, align 4
  br label %158

60:                                               ; preds = %41
  br label %61

61:                                               ; preds = %60, %36
  call void @PMIx_Load_procid(ptr noundef %8, ptr noundef @prte_process_info, i32 noundef -2)
  %62 = load ptr, ptr %5, align 8, !tbaa !25
  %63 = call i32 @prte_get_proc_daemon_vpid(ptr noundef %62)
  %64 = getelementptr inbounds nuw %struct.pmix_proc, ptr %8, i32 0, i32 1
  store i32 %63, ptr %64, align 4, !tbaa !29
  %65 = getelementptr inbounds nuw %struct.pmix_proc, ptr %8, i32 0, i32 1
  %66 = load i32, ptr %65, align 4, !tbaa !29
  %67 = icmp eq i32 -4, %66
  br i1 %67, label %68, label %73

68:                                               ; preds = %61
  br label %69

69:                                               ; preds = %68
  %70 = call ptr @prte_strerror(i32 noundef 84)
  call void (i32, ptr, ...) @pmix_output(i32 noundef 0, ptr noundef @.str.5, ptr noundef %70, ptr noundef @.str.1, i32 noundef 217)
  br label %71

71:                                               ; preds = %69
  br label %72

72:                                               ; preds = %71
  store i32 84, ptr %4, align 4
  store i32 1, ptr %11, align 4
  br label %158

73:                                               ; preds = %61
  %74 = getelementptr inbounds nuw %struct.pmix_proc, ptr %8, i32 0, i32 1
  %75 = load i32, ptr %74, align 4, !tbaa !29
  %76 = load i32, ptr getelementptr inbounds nuw (%struct.pmix_proc, ptr @prte_process_info, i32 0, i32 1), align 8, !tbaa !83
  %77 = icmp ne i32 %75, %76
  br i1 %77, label %78, label %98

78:                                               ; preds = %73
  %79 = load ptr, ptr %5, align 8, !tbaa !25
  %80 = load ptr, ptr %6, align 8, !tbaa !81
  %81 = load i64, ptr %7, align 8, !tbaa !82
  %82 = trunc i64 %81 to i32
  %83 = call i32 @prte_iof_hnp_send_data_to_endpoint(ptr noundef %8, ptr noundef %79, i16 noundef zeroext 1, ptr noundef %80, i32 noundef %82)
  store i32 %83, ptr %10, align 4, !tbaa !20
  %84 = load i32, ptr %10, align 4, !tbaa !20
  %85 = icmp ne i32 0, %84
  br i1 %85, label %86, label %96

86:                                               ; preds = %78
  br label %87

87:                                               ; preds = %86
  %88 = load i32, ptr %10, align 4, !tbaa !20
  %89 = icmp ne i32 -43, %88
  br i1 %89, label %90, label %93

90:                                               ; preds = %87
  %91 = load i32, ptr %10, align 4, !tbaa !20
  %92 = call ptr @prte_strerror(i32 noundef %91)
  call void (i32, ptr, ...) @pmix_output(i32 noundef 0, ptr noundef @.str.5, ptr noundef %92, ptr noundef @.str.1, i32 noundef 235)
  br label %93

93:                                               ; preds = %90, %87
  br label %94

94:                                               ; preds = %93
  br label %95

95:                                               ; preds = %94
  br label %96

96:                                               ; preds = %95, %78
  %97 = load i32, ptr %10, align 4, !tbaa !20
  store i32 %97, ptr %4, align 4
  store i32 1, ptr %11, align 4
  br label %158

98:                                               ; preds = %73
  %99 = load ptr, ptr getelementptr inbounds nuw (%struct.pmix_list_item_t, ptr getelementptr inbounds nuw (%struct.pmix_list_t, ptr getelementptr inbounds nuw (%struct.prte_mca_iof_hnp_component_t, ptr @prte_mca_iof_hnp_component, i32 0, i32 1), i32 0, i32 1), i32 0, i32 1), align 8, !tbaa !34
  store ptr %99, ptr %9, align 8, !tbaa !44
  br label %100

100:                                              ; preds = %153, %98
  %101 = load ptr, ptr %9, align 8, !tbaa !44
  %102 = icmp ne ptr %101, getelementptr inbounds nuw (%struct.pmix_list_t, ptr getelementptr inbounds nuw (%struct.prte_mca_iof_hnp_component_t, ptr @prte_mca_iof_hnp_component, i32 0, i32 1), i32 0, i32 1)
  br i1 %102, label %103, label %157

103:                                              ; preds = %100
  %104 = load ptr, ptr %9, align 8, !tbaa !44
  %105 = getelementptr inbounds nuw %struct.prte_iof_proc_t, ptr %104, i32 0, i32 1
  %106 = load ptr, ptr %5, align 8, !tbaa !25
  %107 = call zeroext i1 @PMIx_Check_procid(ptr noundef %105, ptr noundef %106)
  br i1 %107, label %108, label %152

108:                                              ; preds = %103
  %109 = load ptr, ptr %9, align 8, !tbaa !44
  %110 = getelementptr inbounds nuw %struct.prte_iof_proc_t, ptr %109, i32 0, i32 2
  %111 = load ptr, ptr %110, align 8, !tbaa !74
  %112 = icmp eq ptr null, %111
  br i1 %112, label %113, label %114

113:                                              ; preds = %108
  br label %153

114:                                              ; preds = %108
  %115 = load ptr, ptr %9, align 8, !tbaa !44
  %116 = getelementptr inbounds nuw %struct.prte_iof_proc_t, ptr %115, i32 0, i32 2
  %117 = load ptr, ptr %116, align 8, !tbaa !74
  %118 = getelementptr inbounds nuw %struct.prte_iof_sink_t, ptr %117, i32 0, i32 4
  %119 = load ptr, ptr %118, align 8, !tbaa !69
  %120 = icmp ne ptr null, %119
  br i1 %120, label %121, label %151

121:                                              ; preds = %114
  %122 = load ptr, ptr %9, align 8, !tbaa !44
  %123 = getelementptr inbounds nuw %struct.prte_iof_proc_t, ptr %122, i32 0, i32 1
  %124 = load ptr, ptr %6, align 8, !tbaa !81
  %125 = load i64, ptr %7, align 8, !tbaa !82
  %126 = trunc i64 %125 to i32
  %127 = load ptr, ptr %9, align 8, !tbaa !44
  %128 = getelementptr inbounds nuw %struct.prte_iof_proc_t, ptr %127, i32 0, i32 2
  %129 = load ptr, ptr %128, align 8, !tbaa !74
  %130 = getelementptr inbounds nuw %struct.prte_iof_sink_t, ptr %129, i32 0, i32 4
  %131 = load ptr, ptr %130, align 8, !tbaa !69
  %132 = call i32 @prte_iof_base_write_output(ptr noundef %123, i16 noundef zeroext 1, ptr noundef %124, i32 noundef %126, ptr noundef %131)
  %133 = icmp slt i32 50, %132
  br i1 %133, label %134, label %150

134:                                              ; preds = %121
  %135 = load i32, ptr getelementptr inbounds nuw (%struct.pmix_mca_base_framework_t, ptr @prte_iof_base_framework, i32 0, i32 11), align 4, !tbaa !31
  %136 = icmp sge i32 %135, 0
  br i1 %136, label %137, label %149

137:                                              ; preds = %134
  %138 = load i32, ptr getelementptr inbounds nuw (%struct.pmix_mca_base_framework_t, ptr @prte_iof_base_framework, i32 0, i32 11), align 4, !tbaa !31
  %139 = icmp slt i32 %138, 64
  br i1 %139, label %140, label %149

140:                                              ; preds = %137
  %141 = load i32, ptr getelementptr inbounds nuw (%struct.pmix_mca_base_framework_t, ptr @prte_iof_base_framework, i32 0, i32 11), align 4, !tbaa !31
  %142 = sext i32 %141 to i64
  %143 = getelementptr inbounds [0 x %struct.pmix_output_desc_t], ptr @pmix_output_info, i64 0, i64 %142
  %144 = getelementptr inbounds nuw %struct.pmix_output_desc_t, ptr %143, i32 0, i32 2
  %145 = load i32, ptr %144, align 4, !tbaa !17
  %146 = icmp sge i32 %145, 1
  br i1 %146, label %147, label %149

147:                                              ; preds = %140
  %148 = load i32, ptr getelementptr inbounds nuw (%struct.pmix_mca_base_framework_t, ptr @prte_iof_base_framework, i32 0, i32 11), align 4, !tbaa !31
  call void (i32, ptr, ...) @pmix_output(i32 noundef %148, ptr noundef @.str.8)
  br label %149

149:                                              ; preds = %147, %140, %137, %134
  store i32 -2, ptr %4, align 4
  store i32 1, ptr %11, align 4
  br label %158

150:                                              ; preds = %121
  br label %151

151:                                              ; preds = %150, %114
  br label %152

152:                                              ; preds = %151, %103
  br label %153

153:                                              ; preds = %152, %113
  %154 = load ptr, ptr %9, align 8, !tbaa !44
  %155 = getelementptr inbounds nuw %struct.pmix_list_item_t, ptr %154, i32 0, i32 1
  %156 = load ptr, ptr %155, align 8, !tbaa !45
  store ptr %156, ptr %9, align 8, !tbaa !44
  br label %100, !llvm.loop !86

157:                                              ; preds = %100
  store i32 0, ptr %4, align 4
  store i32 1, ptr %11, align 4
  br label %158

158:                                              ; preds = %157, %149, %96, %72, %58, %16
  call void @llvm.lifetime.end.p0(i64 4, ptr %10) #10
  call void @llvm.lifetime.end.p0(i64 8, ptr %9) #10
  call void @llvm.lifetime.end.p0(i64 260, ptr %8) #10
  %159 = load i32, ptr %4, align 4
  ret i32 %159
}