; Function Attrs: nounwind uwtable
define internal noundef i32 @push_stdin(ptr noundef %0, ptr noundef %1, i64 noundef %2) #0 {
  %4 = alloca %struct.pmix_proc, align 4
  call void @llvm.lifetime.start.p0(i64 260, ptr nonnull %4) #12
  %5 = getelementptr inbounds nuw i8, ptr %0, i64 256
  %6 = load i32, ptr %5, align 4, !tbaa !29
  %7 = icmp eq i32 %6, -4
  br i1 %7, label %.loopexit, label %8

8:                                                ; preds = %3
  %9 = load i32, ptr getelementptr inbounds nuw (i8, ptr @prte_iof_base_framework, i64 76), align 4, !tbaa !31
  %or.cond = icmp ult i32 %9, 64
  br i1 %or.cond, label %10, label %thread-pre-split

10:                                               ; preds = %8
  %11 = zext nneg i32 %9 to i64
  %12 = getelementptr inbounds nuw [0 x %struct.pmix_output_desc_t], ptr @pmix_output_info, i64 0, i64 %11, i32 2
  %13 = load i32, ptr %12, align 4, !tbaa !17
  %14 = icmp sgt i32 %13, 0
  br i1 %14, label %15, label %thread-pre-split

15:                                               ; preds = %10
  %16 = tail call ptr @prte_util_print_name_args(ptr noundef nonnull @prte_process_info) #12
  %17 = tail call ptr @prte_util_print_name_args(ptr noundef nonnull %0) #12
  tail call void (i32, ptr, ...) @pmix_output(i32 noundef %9, ptr noundef nonnull @.str.7, ptr noundef %16, ptr noundef %17, i64 noundef %2) #12
  %.pr.pre = load i32, ptr %5, align 4, !tbaa !29
  br label %thread-pre-split

thread-pre-split:                                 ; preds = %15, %10, %8
  %18 = phi i32 [ %6, %8 ], [ %6, %10 ], [ %.pr.pre, %15 ]
  %19 = icmp eq i32 %18, -2
  br i1 %19, label %20, label %25

20:                                               ; preds = %thread-pre-split
  call void @PMIx_Load_procid(ptr noundef nonnull %4, ptr noundef nonnull @prte_process_info, i32 noundef -2) #12
  %21 = trunc i64 %2 to i32
  %22 = call i32 @prte_iof_hnp_send_data_to_endpoint(ptr noundef nonnull %4, ptr noundef nonnull %0, i16 noundef zeroext 1, ptr noundef %1, i32 noundef %21) #12
  switch i32 %22, label %23 [
    i32 0, label %25
    i32 -43, label %.loopexit
  ]

23:                                               ; preds = %20
  %24 = call ptr @prte_strerror(i32 noundef %22) #12
  call void (i32, ptr, ...) @pmix_output(i32 noundef 0, ptr noundef nonnull @.str.5, ptr noundef %24, ptr noundef nonnull @.str.1, i32 noundef 208) #12
  br label %.loopexit

25:                                               ; preds = %20, %thread-pre-split
  call void @PMIx_Load_procid(ptr noundef nonnull %4, ptr noundef nonnull @prte_process_info, i32 noundef -2) #12
  %26 = call i32 @prte_get_proc_daemon_vpid(ptr noundef nonnull %0) #12
  %27 = getelementptr inbounds nuw i8, ptr %4, i64 256
  store i32 %26, ptr %27, align 4, !tbaa !29
  %28 = icmp eq i32 %26, -4
  br i1 %28, label %29, label %31

29:                                               ; preds = %25
  %30 = call ptr @prte_strerror(i32 noundef 84) #12
  call void (i32, ptr, ...) @pmix_output(i32 noundef 0, ptr noundef nonnull @.str.5, ptr noundef %30, ptr noundef nonnull @.str.1, i32 noundef 217) #12
  br label %.loopexit

31:                                               ; preds = %25
  %32 = load i32, ptr getelementptr inbounds nuw (i8, ptr @prte_process_info, i64 256), align 8, !tbaa !81
  %.not42 = icmp eq i32 %26, %32
  br i1 %.not42, label %.preheader, label %34

.preheader:                                       ; preds = %31
  %.046 = load ptr, ptr getelementptr inbounds nuw (i8, ptr @prte_mca_iof_hnp_component, i64 464), align 8, !tbaa !34
  %.not4347 = icmp eq ptr %.046, getelementptr inbounds nuw (i8, ptr @prte_mca_iof_hnp_component, i64 344)
  br i1 %.not4347, label %.loopexit, label %.lr.ph

.lr.ph:                                           ; preds = %.preheader
  %33 = trunc i64 %2 to i32
  br label %39

34:                                               ; preds = %31
  %35 = trunc i64 %2 to i32
  %36 = call i32 @prte_iof_hnp_send_data_to_endpoint(ptr noundef nonnull %4, ptr noundef nonnull %0, i16 noundef zeroext 1, ptr noundef %1, i32 noundef %35) #12
  switch i32 %36, label %37 [
    i32 -43, label %.loopexit
    i32 0, label %.loopexit
  ]

37:                                               ; preds = %34
  %38 = call ptr @prte_strerror(i32 noundef %36) #12
  call void (i32, ptr, ...) @pmix_output(i32 noundef 0, ptr noundef nonnull @.str.5, ptr noundef %38, ptr noundef nonnull @.str.1, i32 noundef 235) #12
  br label %.loopexit

39:                                               ; preds = %.lr.ph, %60
  %.048 = phi ptr [ %.046, %.lr.ph ], [ %.0, %60 ]
  %40 = getelementptr inbounds nuw i8, ptr %.048, i64 144
  %41 = call zeroext i1 @PMIx_Check_procid(ptr noundef nonnull %40, ptr noundef nonnull %0) #12
  br i1 %41, label %42, label %60

42:                                               ; preds = %39
  %43 = getelementptr inbounds nuw i8, ptr %.048, i64 408
  %44 = load ptr, ptr %43, align 8, !tbaa !66
  %45 = icmp eq ptr %44, null
  br i1 %45, label %60, label %46

46:                                               ; preds = %42
  %47 = getelementptr inbounds nuw i8, ptr %44, i64 672
  %48 = load ptr, ptr %47, align 8, !tbaa !61
  %.not44 = icmp eq ptr %48, null
  br i1 %.not44, label %60, label %49

49:                                               ; preds = %46
  %50 = call i32 @prte_iof_base_write_output(ptr noundef nonnull %40, i16 noundef zeroext 1, ptr noundef %1, i32 noundef %33, ptr noundef nonnull %48) #12
  %51 = icmp sgt i32 %50, 50
  br i1 %51, label %52, label %60

52:                                               ; preds = %49
  %53 = load i32, ptr getelementptr inbounds nuw (i8, ptr @prte_iof_base_framework, i64 76), align 4, !tbaa !31
  %or.cond3 = icmp ult i32 %53, 64
  br i1 %or.cond3, label %54, label %.loopexit

54:                                               ; preds = %52
  %55 = zext nneg i32 %53 to i64
  %56 = getelementptr inbounds nuw [0 x %struct.pmix_output_desc_t], ptr @pmix_output_info, i64 0, i64 %55, i32 2
  %57 = load i32, ptr %56, align 4, !tbaa !17
  %58 = icmp sgt i32 %57, 0
  br i1 %58, label %59, label %.loopexit

59:                                               ; preds = %54
  call void (i32, ptr, ...) @pmix_output(i32 noundef %53, ptr noundef nonnull @.str.8) #12
  br label %.loopexit

60:                                               ; preds = %39, %49, %46, %42
  %61 = getelementptr inbounds nuw i8, ptr %.048, i64 120
  %.0 = load ptr, ptr %61, align 8, !tbaa !34
  %.not43 = icmp eq ptr %.0, getelementptr inbounds nuw (i8, ptr @prte_mca_iof_hnp_component, i64 344)
  br i1 %.not43, label %.loopexit, label %39, !llvm.loop !84

.loopexit:                                        ; preds = %60, %.preheader, %52, %54, %59, %37, %34, %34, %23, %20, %3, %29
  %.034 = phi i32 [ 84, %29 ], [ 0, %3 ], [ %22, %20 ], [ %22, %23 ], [ %36, %34 ], [ %36, %34 ], [ %36, %37 ], [ -2, %59 ], [ -2, %54 ], [ -2, %52 ], [ 0, %.preheader ], [ 0, %60 ]
  call void @llvm.lifetime.end.p0(i64 260, ptr nonnull %4) #12
  ret i32 %.034
}